; Function Attrs: mustprogress nofree norecurse nosync nounwind willreturn memory(argmem: readwrite) uwtable
define internal fastcc range(i32 -4, 1) i32 @fdt_splice_mem_rsv_(ptr noundef %0, ptr noundef %1, i32 noundef range(i32 0, 2) %2, i32 noundef range(i32 0, 2) %3) unnamed_addr #3 {
  %5 = shl nuw nsw i32 %2, 4
  %6 = shl nuw nsw i32 %3, 4
  %7 = getelementptr inbounds nuw i8, ptr %0, i64 12
  %8 = load i8, ptr %7, align 1
  %9 = zext i8 %8 to i32
  %10 = shl nuw i32 %9, 24
  %11 = getelementptr inbounds nuw i8, ptr %0, i64 13
  %12 = load i8, ptr %11, align 1
  %13 = zext i8 %12 to i32
  %14 = shl nuw nsw i32 %13, 16
  %15 = or disjoint i32 %14, %10
  %16 = getelementptr inbounds nuw i8, ptr %0, i64 14
  %17 = load i8, ptr %16, align 1
  %18 = zext i8 %17 to i32
  %19 = shl nuw nsw i32 %18, 8
  %20 = or disjoint i32 %15, %19
  %21 = getelementptr inbounds nuw i8, ptr %0, i64 15
  %22 = load i8, ptr %21, align 1
  %23 = zext i8 %22 to i32
  %24 = or disjoint i32 %20, %23
  %25 = getelementptr inbounds nuw i8, ptr %0, i64 32
  %26 = load i8, ptr %25, align 1
  %27 = zext i8 %26 to i32
  %28 = shl nuw i32 %27, 24
  %29 = getelementptr inbounds nuw i8, ptr %0, i64 33
  %30 = load i8, ptr %29, align 1
  %31 = zext i8 %30 to i32
  %32 = shl nuw nsw i32 %31, 16
  %33 = or disjoint i32 %32, %28
  %34 = getelementptr inbounds nuw i8, ptr %0, i64 34
  %35 = load i8, ptr %34, align 1
  %36 = zext i8 %35 to i32
  %37 = shl nuw nsw i32 %36, 8
  %38 = or disjoint i32 %33, %37
  %39 = getelementptr inbounds nuw i8, ptr %0, i64 35
  %40 = load i8, ptr %39, align 1
  %41 = zext i8 %40 to i32
  %42 = or disjoint i32 %38, %41
  %43 = add i32 %42, %24
  %44 = ptrtoint ptr %1 to i64
  %45 = ptrtoint ptr %0 to i64
  %46 = sub i64 %44, %45
  %47 = zext nneg i32 %5 to i64
  %48 = add i64 %46, %47
  %49 = icmp ult i64 %48, %46
  br i1 %49, label %fdt_splice_.exit.thread, label %50

50:                                               ; preds = %4
  %51 = zext i32 %43 to i64
  %52 = icmp ugt i64 %48, %51
  br i1 %52, label %fdt_splice_.exit.thread, label %53

53:                                               ; preds = %50
  %54 = icmp ult ptr %1, %0
  %55 = add i32 %43, %6
  %56 = icmp ult i32 %55, %5
  %or.cond.i = select i1 %54, i1 true, i1 %56
  br i1 %or.cond.i, label %fdt_splice_.exit.thread, label %57

57:                                               ; preds = %53
  %58 = sub nsw i32 %6, %5
  %59 = add i32 %58, %43
  %60 = getelementptr inbounds nuw i8, ptr %0, i64 4
  %61 = load i8, ptr %60, align 1
  %62 = zext i8 %61 to i32
  %63 = shl nuw i32 %62, 24
  %64 = getelementptr inbounds nuw i8, ptr %0, i64 5
  %65 = load i8, ptr %64, align 1
  %66 = zext i8 %65 to i32
  %67 = shl nuw nsw i32 %66, 16
  %68 = or disjoint i32 %67, %63
  %69 = getelementptr inbounds nuw i8, ptr %0, i64 6
  %70 = load i8, ptr %69, align 1
  %71 = zext i8 %70 to i32
  %72 = shl nuw nsw i32 %71, 8
  %73 = or disjoint i32 %68, %72
  %74 = getelementptr inbounds nuw i8, ptr %0, i64 7
  %75 = load i8, ptr %74, align 1
  %76 = zext i8 %75 to i32
  %77 = or disjoint i32 %73, %76
  %78 = icmp ugt i32 %59, %77
  br i1 %78, label %fdt_splice_.exit.thread, label %79

79:                                               ; preds = %57
  %80 = zext nneg i32 %6 to i64
  %81 = getelementptr inbounds nuw i8, ptr %1, i64 %80
  %82 = getelementptr inbounds nuw i8, ptr %1, i64 %47
  %83 = getelementptr inbounds nuw i8, ptr %0, i64 %51
  %84 = ptrtoint ptr %83 to i64
  %85 = ptrtoint ptr %82 to i64
  %86 = sub i64 %84, %85
  tail call void @llvm.memmove.p0.p0.i64(ptr align 1 %81, ptr align 1 %82, i64 %86, i1 false)
  %87 = sub nsw i32 %3, %2
  %88 = shl nsw i32 %87, 4
  %89 = getelementptr inbounds nuw i8, ptr %0, i64 8
  %90 = load i8, ptr %89, align 1
  %91 = zext i8 %90 to i32
  %92 = shl nuw i32 %91, 24
  %93 = getelementptr inbounds nuw i8, ptr %0, i64 9
  %94 = load i8, ptr %93, align 1
  %95 = zext i8 %94 to i32
  %96 = shl nuw nsw i32 %95, 16
  %97 = or disjoint i32 %96, %92
  %98 = getelementptr inbounds nuw i8, ptr %0, i64 10
  %99 = load i8, ptr %98, align 1
  %100 = zext i8 %99 to i32
  %101 = shl nuw nsw i32 %100, 8
  %102 = or disjoint i32 %97, %101
  %103 = getelementptr inbounds nuw i8, ptr %0, i64 11
  %104 = load i8, ptr %103, align 1
  %105 = zext i8 %104 to i32
  %106 = or disjoint i32 %102, %105
  %107 = add i32 %106, %88
  %rev.i.i = tail call noundef i32 @llvm.bswap.i32(i32 %107)
  store i32 %rev.i.i, ptr %89, align 4
  %108 = load i8, ptr %7, align 1
  %109 = zext i8 %108 to i32
  %110 = shl nuw i32 %109, 24
  %111 = load i8, ptr %11, align 1
  %112 = zext i8 %111 to i32
  %113 = shl nuw nsw i32 %112, 16
  %114 = or disjoint i32 %113, %110
  %115 = load i8, ptr %16, align 1
  %116 = zext i8 %115 to i32
  %117 = shl nuw nsw i32 %116, 8
  %118 = or disjoint i32 %114, %117
  %119 = load i8, ptr %21, align 1
  %120 = zext i8 %119 to i32
  %121 = or disjoint i32 %118, %120
  %122 = add i32 %121, %88
  %rev.i.i15 = tail call noundef i32 @llvm.bswap.i32(i32 %122)
  store i32 %rev.i.i15, ptr %7, align 4
  br label %fdt_splice_.exit.thread

fdt_splice_.exit.thread:                          ; preds = %57, %53, %4, %50, %79
  %.0 = phi i32 [ 0, %79 ], [ -3, %57 ], [ -4, %53 ], [ -4, %4 ], [ -4, %50 ]
  ret i32 %.0
}